; Function Attrs: nounwind uwtable
define dso_local range(i32 0, 5) i32 @ACLUserCheckChannelPerm(ptr noundef readonly captures(address_is_null) %0, ptr noundef %1, i32 noundef %2) local_unnamed_addr #0 {
  %4 = alloca %struct.listIter, align 8
  call void @llvm.lifetime.start.p0(i64 16, ptr nonnull %4) #25
  %5 = icmp eq ptr %0, null
  br i1 %5, label %.critedge, label %6

6:                                                ; preds = %3
  %7 = getelementptr inbounds nuw i8, ptr %0, i64 24
  %8 = load ptr, ptr %7, align 8, !tbaa !79
  call void @listRewind(ptr noundef %8, ptr noundef nonnull %4) #25
  %9 = getelementptr inbounds i8, ptr %1, i64 -1
  %10 = getelementptr inbounds i8, ptr %1, i64 -17
  %11 = getelementptr inbounds i8, ptr %1, i64 -9
  %12 = getelementptr inbounds i8, ptr %1, i64 -5
  %13 = getelementptr inbounds i8, ptr %1, i64 -3
  br label %14

14:                                               ; preds = %sdslen.exit, %6
  %15 = call ptr @listNext(ptr noundef nonnull %4) #25
  %.not = icmp eq ptr %15, null
  br i1 %.not, label %.critedge, label %16

16:                                               ; preds = %14
  %17 = getelementptr inbounds nuw i8, ptr %15, i64 16
  %18 = load ptr, ptr %17, align 8, !tbaa !85
  %19 = load i32, ptr %18, align 8, !tbaa !61
  %20 = and i32 %19, 8
  %.not12 = icmp eq i32 %20, 0
  br i1 %.not12, label %21, label %.critedge

21:                                               ; preds = %16
  %22 = getelementptr inbounds nuw i8, ptr %18, i64 152
  %23 = load ptr, ptr %22, align 8, !tbaa !65
  %24 = load i8, ptr %9, align 1, !tbaa !19
  %25 = zext i8 %24 to i32
  %26 = and i32 %25, 7
  switch i32 %26, label %sdslen.exit [
    i32 0, label %27
    i32 1, label %30
    i32 2, label %33
    i32 3, label %36
    i32 4, label %39
  ]

27:                                               ; preds = %21
  %28 = lshr i32 %25, 3
  %29 = zext nneg i32 %28 to i64
  br label %sdslen.exit

30:                                               ; preds = %21
  %31 = load i8, ptr %13, align 1, !tbaa !19
  %32 = zext i8 %31 to i64
  br label %sdslen.exit

33:                                               ; preds = %21
  %34 = load i16, ptr %12, align 1, !tbaa !26
  %35 = zext i16 %34 to i64
  br label %sdslen.exit

36:                                               ; preds = %21
  %37 = load i32, ptr %11, align 1, !tbaa !102
  %38 = zext i32 %37 to i64
  br label %sdslen.exit

39:                                               ; preds = %21
  %40 = load i64, ptr %10, align 1, !tbaa !5
  br label %sdslen.exit

sdslen.exit:                                      ; preds = %21, %27, %30, %33, %36, %39
  %.0.i = phi i64 [ %40, %39 ], [ %38, %36 ], [ %35, %33 ], [ %32, %30 ], [ %29, %27 ], [ 0, %21 ]
  %41 = trunc i64 %.0.i to i32
  %42 = call fastcc i32 @ACLCheckChannelAgainstList(ptr noundef %23, ptr noundef nonnull %1, i32 noundef %41, i32 noundef %2)
  %.not13 = icmp eq i32 %42, 0
  br i1 %.not13, label %.critedge, label %14, !llvm.loop !186

.critedge:                                        ; preds = %16, %14, %sdslen.exit, %3
  %.0 = phi i32 [ 0, %3 ], [ 0, %16 ], [ 4, %14 ], [ 0, %sdslen.exit ]
  call void @llvm.lifetime.end.p0(i64 16, ptr nonnull %4) #25
  ret i32 %.0
}